target datalayout = "e-m:e-p270:32:32-p271:32:32-p272:64:64-i64:64-i128:128-f80:128-n8:16:32:64-S128"
target triple = "x86_64-unknown-linux-gnu"

module asm ".section\09\22.initcall4.init\22, \22a\22\09\09"
module asm "__initcall__kmod_poweroff__101_45_pm_sysrq_init4:\09\09\09"
module asm ".long\09pm_sysrq_init - .\09"
module asm ".previous\09\09\09\09\09"

%struct.sysrq_key_op = type { ptr, ptr, ptr, i32 }
%struct.cpumask = type { [1 x i64] }
%struct.work_struct = type { %struct.atomic64_t, %struct.list_head, ptr }
%struct.atomic64_t = type { i64 }
%struct.list_head = type { ptr, ptr }

@__UNIQUE_ID___addressable_pm_sysrq_init102 = internal global ptr @pm_sysrq_init, section ".discard.addressable", align 8
@sysrq_poweroff_op = internal constant %struct.sysrq_key_op { ptr @handle_poweroff, ptr @.str, ptr @.str.1, i32 128 }, align 8
@.str = private unnamed_addr constant [12 x i8] c"poweroff(o)\00", align 1
@.str.1 = private unnamed_addr constant [10 x i8] c"Power Off\00", align 1
@__cpu_online_mask = external dso_local local_unnamed_addr global %struct.cpumask, align 8
@poweroff_work = internal global %struct.work_struct { %struct.atomic64_t { i64 68719476704 }, %struct.list_head { ptr getelementptr (i8, ptr @poweroff_work, i64 8), ptr getelementptr (i8, ptr @poweroff_work, i64 8) }, ptr @do_poweroff }, align 8
@system_wq = external dso_local local_unnamed_addr global ptr, align 8
@llvm.compiler.used = appending global [1 x ptr] [ptr @__UNIQUE_ID___addressable_pm_sysrq_init102], section "llvm.metadata"

; Function Attrs: cold fn_ret_thunk_extern nounwind null_pointer_is_valid optsize
define internal noundef i32 @pm_sysrq_init() #0 section ".init.text" align 16 {
  %1 = tail call i32 @register_sysrq_key(i8 noundef zeroext 111, ptr noundef nonnull @sysrq_poweroff_op) #3
  ret i32 0
}

; Function Attrs: null_pointer_is_valid
declare dso_local i32 @register_sysrq_key(i8 noundef zeroext, ptr noundef) local_unnamed_addr #1

; Function Attrs: fn_ret_thunk_extern nounwind null_pointer_is_valid
define internal void @handle_poweroff(i8 zeroext %0) #2 align 16 {
  %2 = load i64, ptr @__cpu_online_mask, align 8
  %3 = icmp eq i64 %2, 0
  br i1 %3, label %7, label %4

4:                                                ; preds = %1
  %5 = tail call i64 asm "rep; bsf $1,$0", "=r,rm,~{dirflag},~{fpsr},~{flags}"(i64 %2) #4, !srcloc !5
  %6 = trunc i64 %5 to i32
  br label %7

7:                                                ; preds = %4, %1
  %8 = phi i32 [ %6, %4 ], [ 64, %1 ]
  %9 = load ptr, ptr @system_wq, align 8
  %10 = tail call zeroext i1 @queue_work_on(i32 noundef %8, ptr noundef %9, ptr noundef nonnull @poweroff_work) #3
  ret void
}

; Function Attrs: null_pointer_is_valid
declare dso_local zeroext i1 @queue_work_on(i32 noundef, ptr noundef, ptr noundef) local_unnamed_addr #1

; Function Attrs: fn_ret_thunk_extern nounwind null_pointer_is_valid
define internal void @do_poweroff(ptr nocapture readnone %0) #2 align 16 {
  tail call void @kernel_power_off() #3
  ret void
}

; Function Attrs: null_pointer_is_valid
declare dso_local void @kernel_power_off() local_unnamed_addr #1


!llvm.module.flags = !{!0, !1, !2, !3, !4}

!0 = !{i32 1, !"wchar_size", i32 2}
!1 = !{i32 8, !"cf-protection-branch", i32 1}
!2 = !{i32 4, !"function_return_thunk_extern", i32 1}
!3 = !{i32 4, !"indirect_branch_cs_prefix", i32 1}
!4 = !{i32 4, !"SkipRaxSetup", i32 1}
!5 = !{i64 292625}
